target datalayout = "e-m:e-p270:32:32-p271:32:32-p272:64:64-i64:64-i128:128-f80:128-n8:16:32:64-S128"
target triple = "x86_64-pc-linux-gnu"

%struct.FunctionCallInfoBaseData = type { ptr, ptr, ptr, i32, i8, i16, [0 x %struct.NullableDatum] }
%struct.NullableDatum = type { i64, i8 }
%struct.ReturnSetInfo = type { i32, ptr, ptr, i32, i32, i32, ptr, ptr }
%struct.PgStat_SLRUStats = type { i64, i64, i64, i64, i64, i64, i64, i64 }

; Function Attrs: inlinehint nounwind uwtable
define internal i64 @TimestampTzGetDatum(i64 noundef %0) #2 {
  %2 = alloca i64, align 8
  store i64 %0, ptr %2, align 8
  %3 = load i64, ptr %2, align 8
  %4 = call i64 @Int64GetDatum(i64 noundef %3)
  ret i64 %4
}

; Function Attrs: inlinehint nounwind uwtable
define internal i64 @Int64GetDatum(i64 noundef %0) #2 {
  %2 = alloca i64, align 8
  store i64 %0, ptr %2, align 8
  %3 = load i64, ptr %2, align 8
  ret i64 %3
}

; Function Attrs: inlinehint nounwind uwtable
define internal i64 @PointerGetDatum(ptr noundef %0) #2 {
  %2 = alloca ptr, align 8
  store ptr %0, ptr %2, align 8
  %3 = load ptr, ptr %2, align 8
  %4 = ptrtoint ptr %3 to i64
  ret i64 %4
}

; Function Attrs: nounwind uwtable
define dso_local i64 @pg_stat_get_slru(ptr noundef %0) #0 {
  %2 = alloca ptr, align 8
  %3 = alloca ptr, align 8
  %4 = alloca i32, align 4
  %5 = alloca ptr, align 8
  %6 = alloca [9 x i64], align 16
  %7 = alloca [9 x i8], align 1
  %8 = alloca %struct.PgStat_SLRUStats, align 8
  %9 = alloca ptr, align 8
  %10 = alloca i32, align 4
  store ptr %0, ptr %2, align 8
  call void @llvm.lifetime.start.p0(i64 8, ptr %3) #10
  %11 = load ptr, ptr %2, align 8
  %12 = getelementptr inbounds nuw %struct.FunctionCallInfoBaseData, ptr %11, i32 0, i32 2
  %13 = load ptr, ptr %12, align 8
  store ptr %13, ptr %3, align 8
  call void @llvm.lifetime.start.p0(i64 4, ptr %4) #10
  call void @llvm.lifetime.start.p0(i64 8, ptr %5) #10
  %14 = load ptr, ptr %2, align 8
  call void @InitMaterializedSRF(ptr noundef %14, i32 noundef 0)
  %15 = call ptr @pgstat_fetch_slru()
  store ptr %15, ptr %5, align 8
  store i32 0, ptr %4, align 4
  br label %16

16:                                               ; preds = %74, %1
  call void @llvm.lifetime.start.p0(i64 72, ptr %6) #10
  call void @llvm.memset.p0.i64(ptr align 16 %6, i8 0, i64 72, i1 false)
  call void @llvm.lifetime.start.p0(i64 9, ptr %7) #10
  call void @llvm.memset.p0.i64(ptr align 1 %7, i8 0, i64 9, i1 false)
  call void @llvm.lifetime.start.p0(i64 64, ptr %8) #10
  call void @llvm.lifetime.start.p0(i64 8, ptr %9) #10
  %17 = load i32, ptr %4, align 4
  %18 = call ptr @pgstat_get_slru_name(i32 noundef %17)
  store ptr %18, ptr %9, align 8
  %19 = load ptr, ptr %9, align 8
  %20 = icmp ne ptr %19, null
  br i1 %20, label %22, label %21

21:                                               ; preds = %16
  store i32 2, ptr %10, align 4
  br label %71

22:                                               ; preds = %16
  %23 = load ptr, ptr %5, align 8
  %24 = load i32, ptr %4, align 4
  %25 = sext i32 %24 to i64
  %26 = getelementptr inbounds %struct.PgStat_SLRUStats, ptr %23, i64 %25
  call void @llvm.memcpy.p0.p0.i64(ptr align 8 %8, ptr align 8 %26, i64 64, i1 false)
  %27 = load ptr, ptr %9, align 8
  %28 = call ptr @cstring_to_text(ptr noundef %27)
  %29 = call i64 @PointerGetDatum(ptr noundef %28)
  %30 = getelementptr inbounds [9 x i64], ptr %6, i64 0, i64 0
  store i64 %29, ptr %30, align 16
  %31 = getelementptr inbounds nuw %struct.PgStat_SLRUStats, ptr %8, i32 0, i32 0
  %32 = load i64, ptr %31, align 8
  %33 = call i64 @Int64GetDatum(i64 noundef %32)
  %34 = getelementptr inbounds [9 x i64], ptr %6, i64 0, i64 1
  store i64 %33, ptr %34, align 8
  %35 = getelementptr inbounds nuw %struct.PgStat_SLRUStats, ptr %8, i32 0, i32 1
  %36 = load i64, ptr %35, align 8
  %37 = call i64 @Int64GetDatum(i64 noundef %36)
  %38 = getelementptr inbounds [9 x i64], ptr %6, i64 0, i64 2
  store i64 %37, ptr %38, align 16
  %39 = getelementptr inbounds nuw %struct.PgStat_SLRUStats, ptr %8, i32 0, i32 2
  %40 = load i64, ptr %39, align 8
  %41 = call i64 @Int64GetDatum(i64 noundef %40)
  %42 = getelementptr inbounds [9 x i64], ptr %6, i64 0, i64 3
  store i64 %41, ptr %42, align 8
  %43 = getelementptr inbounds nuw %struct.PgStat_SLRUStats, ptr %8, i32 0, i32 3
  %44 = load i64, ptr %43, align 8
  %45 = call i64 @Int64GetDatum(i64 noundef %44)
  %46 = getelementptr inbounds [9 x i64], ptr %6, i64 0, i64 4
  store i64 %45, ptr %46, align 16
  %47 = getelementptr inbounds nuw %struct.PgStat_SLRUStats, ptr %8, i32 0, i32 4
  %48 = load i64, ptr %47, align 8
  %49 = call i64 @Int64GetDatum(i64 noundef %48)
  %50 = getelementptr inbounds [9 x i64], ptr %6, i64 0, i64 5
  store i64 %49, ptr %50, align 8
  %51 = getelementptr inbounds nuw %struct.PgStat_SLRUStats, ptr %8, i32 0, i32 5
  %52 = load i64, ptr %51, align 8
  %53 = call i64 @Int64GetDatum(i64 noundef %52)
  %54 = getelementptr inbounds [9 x i64], ptr %6, i64 0, i64 6
  store i64 %53, ptr %54, align 16
  %55 = getelementptr inbounds nuw %struct.PgStat_SLRUStats, ptr %8, i32 0, i32 6
  %56 = load i64, ptr %55, align 8
  %57 = call i64 @Int64GetDatum(i64 noundef %56)
  %58 = getelementptr inbounds [9 x i64], ptr %6, i64 0, i64 7
  store i64 %57, ptr %58, align 8
  %59 = getelementptr inbounds nuw %struct.PgStat_SLRUStats, ptr %8, i32 0, i32 7
  %60 = load i64, ptr %59, align 8
  %61 = call i64 @TimestampTzGetDatum(i64 noundef %60)
  %62 = getelementptr inbounds [9 x i64], ptr %6, i64 0, i64 8
  store i64 %61, ptr %62, align 16
  %63 = load ptr, ptr %3, align 8
  %64 = getelementptr inbounds nuw %struct.ReturnSetInfo, ptr %63, i32 0, i32 6
  %65 = load ptr, ptr %64, align 8
  %66 = load ptr, ptr %3, align 8
  %67 = getelementptr inbounds nuw %struct.ReturnSetInfo, ptr %66, i32 0, i32 7
  %68 = load ptr, ptr %67, align 8
  %69 = getelementptr inbounds [9 x i64], ptr %6, i64 0, i64 0
  %70 = getelementptr inbounds [9 x i8], ptr %7, i64 0, i64 0
  call void @tuplestore_putvalues(ptr noundef %65, ptr noundef %68, ptr noundef %69, ptr noundef %70)
  store i32 0, ptr %10, align 4
  br label %71

71:                                               ; preds = %22, %21
  call void @llvm.lifetime.end.p0(i64 8, ptr %9) #10
  call void @llvm.lifetime.end.p0(i64 64, ptr %8) #10
  call void @llvm.lifetime.end.p0(i64 9, ptr %7) #10
  call void @llvm.lifetime.end.p0(i64 72, ptr %6) #10
  %72 = load i32, ptr %10, align 4
  switch i32 %72, label %78 [
    i32 0, label %73
    i32 2, label %77
  ]

73:                                               ; preds = %71
  br label %74

74:                                               ; preds = %73
  %75 = load i32, ptr %4, align 4
  %76 = add i32 %75, 1
  store i32 %76, ptr %4, align 4
  br label %16

77:                                               ; preds = %71
  store i32 1, ptr %10, align 4
  call void @llvm.lifetime.end.p0(i64 8, ptr %5) #10
  call void @llvm.lifetime.end.p0(i64 4, ptr %4) #10
  call void @llvm.lifetime.end.p0(i64 8, ptr %3) #10
  ret i64 0

78:                                               ; preds = %71
  unreachable
}