; Function Attrs: nounwind uwtable
define dso_local noundef i64 @pg_stat_get_slru(ptr noundef %0) local_unnamed_addr #0 {
  %2 = alloca [9 x i64], align 16
  %3 = alloca [9 x i8], align 1
  %4 = getelementptr inbounds nuw i8, ptr %0, i64 16
  %5 = load ptr, ptr %4, align 8
  tail call void @InitMaterializedSRF(ptr noundef %0, i32 noundef 0) #9
  %6 = tail call ptr @pgstat_fetch_slru() #9
  call void @llvm.lifetime.start.p0(i64 72, ptr nonnull %2) #9
  call void @llvm.memset.p0.i64(ptr noundef nonnull align 16 dereferenceable(72) %2, i8 0, i64 72, i1 false)
  call void @llvm.lifetime.start.p0(i64 9, ptr nonnull %3) #9
  call void @llvm.memset.p0.i64(ptr noundef nonnull align 1 dereferenceable(9) %3, i8 0, i64 9, i1 false)
  %7 = tail call ptr @pgstat_get_slru_name(i32 noundef 0) #9
  %.not14 = icmp eq ptr %7, null
  br i1 %.not14, label %._crit_edge, label %.lr.ph

.lr.ph:                                           ; preds = %1
  %8 = getelementptr inbounds nuw i8, ptr %2, i64 8
  %9 = getelementptr inbounds nuw i8, ptr %2, i64 16
  %10 = getelementptr inbounds nuw i8, ptr %2, i64 24
  %11 = getelementptr inbounds nuw i8, ptr %2, i64 32
  %12 = getelementptr inbounds nuw i8, ptr %2, i64 40
  %13 = getelementptr inbounds nuw i8, ptr %2, i64 48
  %14 = getelementptr inbounds nuw i8, ptr %2, i64 56
  %15 = getelementptr inbounds nuw i8, ptr %2, i64 64
  %16 = getelementptr inbounds nuw i8, ptr %5, i64 40
  %17 = getelementptr inbounds nuw i8, ptr %5, i64 48
  br label %18

18:                                               ; preds = %.lr.ph, %18
  %19 = phi ptr [ %7, %.lr.ph ], [ %27, %18 ]
  %.01015 = phi i32 [ 0, %.lr.ph ], [ %26, %18 ]
  %20 = sext i32 %.01015 to i64
  %21 = getelementptr inbounds %struct.PgStat_SLRUStats, ptr %6, i64 %20
  %.sroa.0.0.copyload = load i64, ptr %21, align 8
  %.sroa.4.0..sroa_idx = getelementptr inbounds nuw i8, ptr %21, i64 8
  %.sroa.4.0.copyload = load i64, ptr %.sroa.4.0..sroa_idx, align 8
  %.sroa.5.0..sroa_idx = getelementptr inbounds nuw i8, ptr %21, i64 16
  %.sroa.5.0.copyload = load i64, ptr %.sroa.5.0..sroa_idx, align 8
  %.sroa.6.0..sroa_idx = getelementptr inbounds nuw i8, ptr %21, i64 24
  %.sroa.6.0.copyload = load i64, ptr %.sroa.6.0..sroa_idx, align 8
  %.sroa.7.0..sroa_idx = getelementptr inbounds nuw i8, ptr %21, i64 32
  %.sroa.7.0.copyload = load i64, ptr %.sroa.7.0..sroa_idx, align 8
  %.sroa.8.0..sroa_idx = getelementptr inbounds nuw i8, ptr %21, i64 40
  %.sroa.8.0.copyload = load i64, ptr %.sroa.8.0..sroa_idx, align 8
  %.sroa.9.0..sroa_idx = getelementptr inbounds nuw i8, ptr %21, i64 48
  %.sroa.9.0.copyload = load i64, ptr %.sroa.9.0..sroa_idx, align 8
  %.sroa.10.0..sroa_idx = getelementptr inbounds nuw i8, ptr %21, i64 56
  %.sroa.10.0.copyload = load i64, ptr %.sroa.10.0..sroa_idx, align 8
  %22 = call ptr @cstring_to_text(ptr noundef nonnull %19) #9
  %23 = ptrtoint ptr %22 to i64
  store i64 %23, ptr %2, align 16
  store i64 %.sroa.0.0.copyload, ptr %8, align 8
  store i64 %.sroa.4.0.copyload, ptr %9, align 16
  store i64 %.sroa.5.0.copyload, ptr %10, align 8
  store i64 %.sroa.6.0.copyload, ptr %11, align 16
  store i64 %.sroa.7.0.copyload, ptr %12, align 8
  store i64 %.sroa.8.0.copyload, ptr %13, align 16
  store i64 %.sroa.9.0.copyload, ptr %14, align 8
  store i64 %.sroa.10.0.copyload, ptr %15, align 16
  %24 = load ptr, ptr %16, align 8
  %25 = load ptr, ptr %17, align 8
  call void @tuplestore_putvalues(ptr noundef %24, ptr noundef %25, ptr noundef nonnull %2, ptr noundef nonnull %3) #9
  call void @llvm.lifetime.end.p0(i64 9, ptr nonnull %3) #9
  call void @llvm.lifetime.end.p0(i64 72, ptr nonnull %2) #9
  %26 = add i32 %.01015, 1
  call void @llvm.lifetime.start.p0(i64 72, ptr nonnull %2) #9
  call void @llvm.memset.p0.i64(ptr noundef nonnull align 16 dereferenceable(72) %2, i8 0, i64 72, i1 false)
  call void @llvm.lifetime.start.p0(i64 9, ptr nonnull %3) #9
  call void @llvm.memset.p0.i64(ptr noundef nonnull align 1 dereferenceable(9) %3, i8 0, i64 9, i1 false)
  %27 = call ptr @pgstat_get_slru_name(i32 noundef %26) #9
  %.not = icmp eq ptr %27, null
  br i1 %.not, label %._crit_edge, label %18

._crit_edge:                                      ; preds = %18, %1
  call void @llvm.lifetime.end.p0(i64 9, ptr nonnull %3) #9
  call void @llvm.lifetime.end.p0(i64 72, ptr nonnull %2) #9
  ret i64 0
}